; ModuleID = 'bench/lvgl/original/lv_os_none.ll'
source_filename = "bench/lvgl/original/lv_os_none.ll"
target datalayout = "e-m:e-p270:32:32-p271:32:32-p272:64:64-i64:64-i128:128-f80:128-n8:16:32:64-S128"
target triple = "x86_64-pc-linux-gnu"

; Function Attrs: nounwind uwtable
define i32 @lv_os_get_idle_percent() local_unnamed_addr #0 {
  %1 = tail call i32 @lv_timer_get_idle() #2
  ret i32 %1
}

declare i32 @lv_timer_get_idle() local_unnamed_addr #1


!llvm.module.flags = !{!0, !1, !2}

!0 = !{i32 1, !"wchar_size", i32 4}
!1 = !{i32 8, !"PIC Level", i32 2}
!2 = !{i32 7, !"uwtable", i32 2}
